; Function Attrs: nounwind uwtable
define dso_local ptr @_PyInstructionSequence_New() local_unnamed_addr #1 {
  %1 = tail call ptr @_PyObject_GC_New(ptr noundef nonnull @_PyInstructionSequence_Type) #6
  %2 = icmp eq ptr %1, null
  br i1 %2, label %inst_seq_create.exit, label %3

3:                                                ; preds = %0
  %4 = getelementptr inbounds nuw i8, ptr %1, i64 16
  %5 = getelementptr inbounds nuw i8, ptr %1, i64 40
  store ptr null, ptr %5, align 8, !tbaa !15
  %6 = getelementptr inbounds nuw i8, ptr %1, i64 48
  store i32 0, ptr %6, align 8, !tbaa !14
  %7 = getelementptr inbounds nuw i8, ptr %1, i64 56
  store ptr null, ptr %7, align 8, !tbaa !34
  tail call void @llvm.memset.p0.i64(ptr noundef nonnull align 8 dereferenceable(20) %4, i8 0, i64 20, i1 false)
  tail call void @PyObject_GC_Track(ptr noundef nonnull %1) #6
  br label %inst_seq_create.exit

inst_seq_create.exit:                             ; preds = %0, %3
  ret ptr %1
}